target datalayout = "e-m:e-p270:32:32-p271:32:32-p272:64:64-i64:64-i128:128-f80:128-n8:16:32:64-S128"
target triple = "x86_64-pc-linux-gnu"

%struct.expert_field = type { i32, i32 }
%struct._packet_info = type { ptr, ptr, i32, i32, %struct.nstime_t, %struct.nstime_t, %struct.nstime_t, i8, ptr, ptr, ptr, ptr, %struct._address, %struct._address, %struct._address, %struct._address, %struct._address, %struct._address, i32, ptr, i8, [3 x i8], %struct.anon, i32, i32, i32, i32, ptr, i8, ptr, ptr, i16, i16, i32, i32, i16, i32, i32, ptr, ptr, ptr, i8, i8, i16, i16, i16, i32, i16, i16, ptr, ptr, ptr, ptr, ptr, i32, i32 }
%struct.nstime_t = type { i64, i32 }
%struct._address = type { i32, i32, ptr, ptr }
%struct.anon = type { i8, [3 x i8] }

@hf_mpls_echo_version = internal global i32 0, align 4
@hf_mpls_echo_mbz = internal global i32 0, align 4
@hf_mpls_echo_gflags = internal global i32 0, align 4
@hf_mpls_echo_flag_sbz = internal global i32 0, align 4
@hf_mpls_echo_flag_v = internal global i32 0, align 4
@hf_mpls_echo_flag_t = internal global i32 0, align 4
@hf_mpls_echo_flag_r = internal global i32 0, align 4
@hf_mpls_echo_msgtype = internal global i32 0, align 4
@hf_mpls_echo_replymode = internal global i32 0, align 4
@hf_mpls_echo_returncode = internal global i32 0, align 4
@hf_mpls_echo_returnsubcode = internal global i32 0, align 4
@hf_mpls_echo_handle = internal global i32 0, align 4
@hf_mpls_echo_sequence = internal global i32 0, align 4
@hf_mpls_echo_ts_sent = internal global i32 0, align 4
@hf_mpls_echo_ts_rec = internal global i32 0, align 4
@ett_mpls_echo = internal global i32 0, align 4
@ett_mpls_echo_gflags = internal global i32 0, align 4
@ei_mpls_echo_malformed = internal global %struct.expert_field zeroinitializer, align 4
@proto_mpls_echo = internal global i32 0, align 4
@.str.622 = private unnamed_addr constant [10 x i8] c"MPLS ECHO\00", align 1
@.str.623 = private unnamed_addr constant [18 x i8] c"Malformed Message\00", align 1
@.str.624 = private unnamed_addr constant [56 x i8] c"Error processing Message: length is %d, should be >= %u\00", align 1
@.str.625 = private unnamed_addr constant [30 x i8] c"Unknown Message Type (0x%02X)\00", align 1

; Function Attrs: null_pointer_is_valid sspstrong uwtable
define internal i32 @dissect_mpls_echo(ptr noundef %0, ptr noundef %1, ptr noundef %2, ptr noundef %3) #0 {
  %5 = alloca i32, align 4
  %6 = alloca ptr, align 8
  %7 = alloca ptr, align 8
  %8 = alloca ptr, align 8
  %9 = alloca ptr, align 8
  %10 = alloca i32, align 4
  %11 = alloca i32, align 4
  %12 = alloca i32, align 4
  %13 = alloca ptr, align 8
  %14 = alloca ptr, align 8
  %15 = alloca i8, align 1
  %16 = alloca i32, align 4
  %17 = alloca ptr, align 8
  store ptr %0, ptr %6, align 8
  store ptr %1, ptr %7, align 8
  store ptr %2, ptr %8, align 8
  store ptr %3, ptr %9, align 8
  call void @llvm.lifetime.start.p0(i64 4, ptr %10) #4
  store i32 0, ptr %10, align 4
  call void @llvm.lifetime.start.p0(i64 4, ptr %11) #4
  store i32 0, ptr %11, align 4
  call void @llvm.lifetime.start.p0(i64 4, ptr %12) #4
  call void @llvm.lifetime.start.p0(i64 8, ptr %13) #4
  store ptr null, ptr %13, align 8
  call void @llvm.lifetime.start.p0(i64 8, ptr %14) #4
  store ptr null, ptr %14, align 8
  call void @llvm.lifetime.start.p0(i64 1, ptr %15) #4
  %18 = load ptr, ptr %6, align 8
  %19 = call i32 @tvb_captured_length(ptr noundef %18)
  %20 = icmp ult i32 %19, 5
  br i1 %20, label %21, label %22

21:                                               ; preds = %4
  store i32 0, ptr %5, align 4
  store i32 1, ptr %16, align 4
  br label %253

22:                                               ; preds = %4
  %23 = load ptr, ptr %6, align 8
  %24 = call zeroext i16 @tvb_get_ntohs(ptr noundef %23, i32 noundef 0)
  %25 = zext i16 %24 to i32
  %26 = icmp ne i32 %25, 1
  br i1 %26, label %27, label %28

27:                                               ; preds = %22
  store i32 0, ptr %5, align 4
  store i32 1, ptr %16, align 4
  br label %253

28:                                               ; preds = %22
  %29 = load ptr, ptr %7, align 8
  %30 = getelementptr inbounds nuw %struct._packet_info, ptr %29, i32 0, i32 1
  %31 = load ptr, ptr %30, align 8
  call void @col_set_str(ptr noundef %31, i32 noundef 35, ptr noundef @.str.622)
  %32 = load ptr, ptr %7, align 8
  %33 = getelementptr inbounds nuw %struct._packet_info, ptr %32, i32 0, i32 1
  %34 = load ptr, ptr %33, align 8
  call void @col_clear(ptr noundef %34, i32 noundef 25)
  %35 = load ptr, ptr %6, align 8
  %36 = load i32, ptr %10, align 4
  %37 = call i32 @tvb_reported_length_remaining(ptr noundef %35, i32 noundef %36)
  store i32 %37, ptr %11, align 4
  %38 = load ptr, ptr %6, align 8
  %39 = load i32, ptr %10, align 4
  %40 = add i32 %39, 4
  %41 = call zeroext i8 @tvb_get_uint8(ptr noundef %38, i32 noundef %40)
  store i8 %41, ptr %15, align 1
  %42 = load i8, ptr %15, align 1
  %43 = zext i8 %42 to i32
  %44 = icmp eq i32 %43, 1
  br i1 %44, label %52, label %45

45:                                               ; preds = %28
  %46 = load i8, ptr %15, align 1
  %47 = zext i8 %46 to i32
  %48 = icmp eq i32 %47, 2
  br i1 %48, label %52, label %49

49:                                               ; preds = %45
  %50 = load i32, ptr %11, align 4
  %51 = icmp slt i32 %50, 16
  br i1 %51, label %63, label %52

52:                                               ; preds = %49, %45, %28
  %53 = load i8, ptr %15, align 1
  %54 = zext i8 %53 to i32
  %55 = icmp eq i32 %54, 1
  br i1 %55, label %60, label %56

56:                                               ; preds = %52
  %57 = load i8, ptr %15, align 1
  %58 = zext i8 %57 to i32
  %59 = icmp eq i32 %58, 2
  br i1 %59, label %60, label %85

60:                                               ; preds = %56, %52
  %61 = load i32, ptr %11, align 4
  %62 = icmp slt i32 %61, 32
  br i1 %62, label %63, label %85

63:                                               ; preds = %60, %49
  %64 = load ptr, ptr %7, align 8
  %65 = getelementptr inbounds nuw %struct._packet_info, ptr %64, i32 0, i32 1
  %66 = load ptr, ptr %65, align 8
  call void @col_set_str(ptr noundef %66, i32 noundef 25, ptr noundef @.str.623)
  %67 = load ptr, ptr %8, align 8
  %68 = load i32, ptr @proto_mpls_echo, align 4
  %69 = load ptr, ptr %6, align 8
  %70 = call ptr @proto_tree_add_item(ptr noundef %67, i32 noundef %68, ptr noundef %69, i32 noundef 0, i32 noundef -1, i32 noundef 0)
  store ptr %70, ptr %13, align 8
  %71 = load ptr, ptr %7, align 8
  %72 = load ptr, ptr %13, align 8
  %73 = load i32, ptr %11, align 4
  %74 = load i8, ptr %15, align 1
  %75 = zext i8 %74 to i32
  %76 = icmp eq i32 %75, 1
  br i1 %76, label %81, label %77

77:                                               ; preds = %63
  %78 = load i8, ptr %15, align 1
  %79 = zext i8 %78 to i32
  %80 = icmp eq i32 %79, 2
  br label %81

81:                                               ; preds = %77, %63
  %82 = phi i1 [ true, %63 ], [ %80, %77 ]
  %83 = select i1 %82, i32 32, i32 16
  %84 = call ptr (ptr, ptr, ptr, ptr, ...) @expert_add_info_format(ptr noundef %71, ptr noundef %72, ptr noundef @ei_mpls_echo_malformed, ptr noundef @.str.624, i32 noundef %73, i32 noundef %83)
  store i32 0, ptr %5, align 4
  store i32 1, ptr %16, align 4
  br label %253

85:                                               ; preds = %60, %56
  %86 = load ptr, ptr %7, align 8
  %87 = getelementptr inbounds nuw %struct._packet_info, ptr %86, i32 0, i32 1
  %88 = load ptr, ptr %87, align 8
  %89 = load i8, ptr %15, align 1
  %90 = zext i8 %89 to i32
  %91 = call ptr @val_to_str(i32 noundef %90, ptr noundef @mpls_echo_msgtype, ptr noundef @.str.625)
  call void @col_add_str(ptr noundef %88, i32 noundef 25, ptr noundef %91)
  %92 = load ptr, ptr %8, align 8
  %93 = icmp ne ptr %92, null
  br i1 %93, label %94, label %213

94:                                               ; preds = %85
  %95 = load ptr, ptr %8, align 8
  %96 = load i32, ptr @proto_mpls_echo, align 4
  %97 = load ptr, ptr %6, align 8
  %98 = call ptr @proto_tree_add_item(ptr noundef %95, i32 noundef %96, ptr noundef %97, i32 noundef 0, i32 noundef -1, i32 noundef 0)
  store ptr %98, ptr %13, align 8
  %99 = load ptr, ptr %13, align 8
  %100 = load i32, ptr @ett_mpls_echo, align 4
  %101 = call ptr @proto_item_add_subtree(ptr noundef %99, i32 noundef %100)
  store ptr %101, ptr %14, align 8
  %102 = load ptr, ptr %14, align 8
  %103 = load i32, ptr @hf_mpls_echo_version, align 4
  %104 = load ptr, ptr %6, align 8
  %105 = load i32, ptr %10, align 4
  %106 = call ptr @proto_tree_add_item(ptr noundef %102, i32 noundef %103, ptr noundef %104, i32 noundef %105, i32 noundef 2, i32 noundef 0)
  %107 = load i8, ptr %15, align 1
  %108 = zext i8 %107 to i32
  %109 = icmp eq i32 %108, 1
  br i1 %109, label %114, label %110

110:                                              ; preds = %94
  %111 = load i8, ptr %15, align 1
  %112 = zext i8 %111 to i32
  %113 = icmp eq i32 %112, 2
  br i1 %113, label %114, label %148

114:                                              ; preds = %110, %94
  call void @llvm.lifetime.start.p0(i64 8, ptr %17) #4
  %115 = load ptr, ptr %14, align 8
  %116 = load i32, ptr @hf_mpls_echo_gflags, align 4
  %117 = load ptr, ptr %6, align 8
  %118 = load i32, ptr %10, align 4
  %119 = add i32 %118, 2
  %120 = call ptr @proto_tree_add_item(ptr noundef %115, i32 noundef %116, ptr noundef %117, i32 noundef %119, i32 noundef 2, i32 noundef 0)
  store ptr %120, ptr %13, align 8
  %121 = load ptr, ptr %13, align 8
  %122 = load i32, ptr @ett_mpls_echo_gflags, align 4
  %123 = call ptr @proto_item_add_subtree(ptr noundef %121, i32 noundef %122)
  store ptr %123, ptr %17, align 8
  %124 = load ptr, ptr %17, align 8
  %125 = load i32, ptr @hf_mpls_echo_flag_sbz, align 4
  %126 = load ptr, ptr %6, align 8
  %127 = load i32, ptr %10, align 4
  %128 = add i32 %127, 2
  %129 = call ptr @proto_tree_add_item(ptr noundef %124, i32 noundef %125, ptr noundef %126, i32 noundef %128, i32 noundef 2, i32 noundef 0)
  %130 = load ptr, ptr %17, align 8
  %131 = load i32, ptr @hf_mpls_echo_flag_v, align 4
  %132 = load ptr, ptr %6, align 8
  %133 = load i32, ptr %10, align 4
  %134 = add i32 %133, 2
  %135 = call ptr @proto_tree_add_item(ptr noundef %130, i32 noundef %131, ptr noundef %132, i32 noundef %134, i32 noundef 2, i32 noundef 0)
  %136 = load ptr, ptr %17, align 8
  %137 = load i32, ptr @hf_mpls_echo_flag_t, align 4
  %138 = load ptr, ptr %6, align 8
  %139 = load i32, ptr %10, align 4
  %140 = add i32 %139, 2
  %141 = call ptr @proto_tree_add_item(ptr noundef %136, i32 noundef %137, ptr noundef %138, i32 noundef %140, i32 noundef 2, i32 noundef 0)
  %142 = load ptr, ptr %17, align 8
  %143 = load i32, ptr @hf_mpls_echo_flag_r, align 4
  %144 = load ptr, ptr %6, align 8
  %145 = load i32, ptr %10, align 4
  %146 = add i32 %145, 2
  %147 = call ptr @proto_tree_add_item(ptr noundef %142, i32 noundef %143, ptr noundef %144, i32 noundef %146, i32 noundef 2, i32 noundef 0)
  call void @llvm.lifetime.end.p0(i64 8, ptr %17) #4
  br label %155

148:                                              ; preds = %110
  %149 = load ptr, ptr %14, align 8
  %150 = load i32, ptr @hf_mpls_echo_mbz, align 4
  %151 = load ptr, ptr %6, align 8
  %152 = load i32, ptr %10, align 4
  %153 = add i32 %152, 2
  %154 = call ptr @proto_tree_add_item(ptr noundef %149, i32 noundef %150, ptr noundef %151, i32 noundef %153, i32 noundef 2, i32 noundef 0)
  br label %155

155:                                              ; preds = %148, %114
  %156 = load ptr, ptr %14, align 8
  %157 = load i32, ptr @hf_mpls_echo_msgtype, align 4
  %158 = load ptr, ptr %6, align 8
  %159 = load i32, ptr %10, align 4
  %160 = add i32 %159, 4
  %161 = call ptr @proto_tree_add_item(ptr noundef %156, i32 noundef %157, ptr noundef %158, i32 noundef %160, i32 noundef 1, i32 noundef 0)
  %162 = load ptr, ptr %14, align 8
  %163 = load i32, ptr @hf_mpls_echo_replymode, align 4
  %164 = load ptr, ptr %6, align 8
  %165 = load i32, ptr %10, align 4
  %166 = add i32 %165, 5
  %167 = call ptr @proto_tree_add_item(ptr noundef %162, i32 noundef %163, ptr noundef %164, i32 noundef %166, i32 noundef 1, i32 noundef 0)
  %168 = load ptr, ptr %14, align 8
  %169 = load i32, ptr @hf_mpls_echo_returncode, align 4
  %170 = load ptr, ptr %6, align 8
  %171 = load i32, ptr %10, align 4
  %172 = add i32 %171, 6
  %173 = call ptr @proto_tree_add_item(ptr noundef %168, i32 noundef %169, ptr noundef %170, i32 noundef %172, i32 noundef 1, i32 noundef 0)
  %174 = load ptr, ptr %14, align 8
  %175 = load i32, ptr @hf_mpls_echo_returnsubcode, align 4
  %176 = load ptr, ptr %6, align 8
  %177 = load i32, ptr %10, align 4
  %178 = add i32 %177, 7
  %179 = call ptr @proto_tree_add_item(ptr noundef %174, i32 noundef %175, ptr noundef %176, i32 noundef %178, i32 noundef 1, i32 noundef 0)
  %180 = load ptr, ptr %14, align 8
  %181 = load i32, ptr @hf_mpls_echo_handle, align 4
  %182 = load ptr, ptr %6, align 8
  %183 = load i32, ptr %10, align 4
  %184 = add i32 %183, 8
  %185 = call ptr @proto_tree_add_item(ptr noundef %180, i32 noundef %181, ptr noundef %182, i32 noundef %184, i32 noundef 4, i32 noundef 0)
  %186 = load ptr, ptr %14, align 8
  %187 = load i32, ptr @hf_mpls_echo_sequence, align 4
  %188 = load ptr, ptr %6, align 8
  %189 = load i32, ptr %10, align 4
  %190 = add i32 %189, 12
  %191 = call ptr @proto_tree_add_item(ptr noundef %186, i32 noundef %187, ptr noundef %188, i32 noundef %190, i32 noundef 4, i32 noundef 0)
  %192 = load i8, ptr %15, align 1
  %193 = zext i8 %192 to i32
  %194 = icmp eq i32 %193, 1
  br i1 %194, label %199, label %195

195:                                              ; preds = %155
  %196 = load i8, ptr %15, align 1
  %197 = zext i8 %196 to i32
  %198 = icmp eq i32 %197, 2
  br i1 %198, label %199, label %212

199:                                              ; preds = %195, %155
  %200 = load ptr, ptr %14, align 8
  %201 = load i32, ptr @hf_mpls_echo_ts_sent, align 4
  %202 = load ptr, ptr %6, align 8
  %203 = load i32, ptr %10, align 4
  %204 = add i32 %203, 16
  %205 = call ptr @proto_tree_add_item(ptr noundef %200, i32 noundef %201, ptr noundef %202, i32 noundef %204, i32 noundef 8, i32 noundef 2)
  %206 = load ptr, ptr %14, align 8
  %207 = load i32, ptr @hf_mpls_echo_ts_rec, align 4
  %208 = load ptr, ptr %6, align 8
  %209 = load i32, ptr %10, align 4
  %210 = add i32 %209, 24
  %211 = call ptr @proto_tree_add_item(ptr noundef %206, i32 noundef %207, ptr noundef %208, i32 noundef %210, i32 noundef 8, i32 noundef 2)
  br label %212

212:                                              ; preds = %199, %195
  br label %213

213:                                              ; preds = %212, %85
  %214 = load i8, ptr %15, align 1
  %215 = zext i8 %214 to i32
  %216 = icmp eq i32 %215, 1
  br i1 %216, label %221, label %217

217:                                              ; preds = %213
  %218 = load i8, ptr %15, align 1
  %219 = zext i8 %218 to i32
  %220 = icmp eq i32 %219, 2
  br i1 %220, label %221, label %226

221:                                              ; preds = %217, %213
  %222 = load i32, ptr %10, align 4
  %223 = add i32 %222, 32
  store i32 %223, ptr %10, align 4
  %224 = load i32, ptr %11, align 4
  %225 = sub i32 %224, 32
  store i32 %225, ptr %11, align 4
  br label %231

226:                                              ; preds = %217
  %227 = load i32, ptr %10, align 4
  %228 = add i32 %227, 16
  store i32 %228, ptr %10, align 4
  %229 = load i32, ptr %11, align 4
  %230 = sub i32 %229, 16
  store i32 %230, ptr %11, align 4
  br label %231

231:                                              ; preds = %226, %221
  br label %232

232:                                              ; preds = %237, %231
  %233 = load ptr, ptr %6, align 8
  %234 = load i32, ptr %10, align 4
  %235 = call i32 @tvb_reported_length_remaining(ptr noundef %233, i32 noundef %234)
  %236 = icmp sgt i32 %235, 0
  br i1 %236, label %237, label %250

237:                                              ; preds = %232
  %238 = load ptr, ptr %6, align 8
  %239 = load ptr, ptr %7, align 8
  %240 = load i32, ptr %10, align 4
  %241 = load ptr, ptr %14, align 8
  %242 = load i32, ptr %11, align 4
  %243 = call i32 @dissect_mpls_echo_tlv(ptr noundef %238, ptr noundef %239, i32 noundef %240, ptr noundef %241, i32 noundef %242, i1 noundef zeroext false)
  store i32 %243, ptr %12, align 4
  %244 = load i32, ptr %12, align 4
  %245 = load i32, ptr %10, align 4
  %246 = add i32 %245, %244
  store i32 %246, ptr %10, align 4
  %247 = load i32, ptr %12, align 4
  %248 = load i32, ptr %11, align 4
  %249 = sub i32 %248, %247
  store i32 %249, ptr %11, align 4
  br label %232, !llvm.loop !6

250:                                              ; preds = %232
  %251 = load ptr, ptr %6, align 8
  %252 = call i32 @tvb_captured_length(ptr noundef %251)
  store i32 %252, ptr %5, align 4
  store i32 1, ptr %16, align 4
  br label %253

253:                                              ; preds = %250, %81, %27, %21
  call void @llvm.lifetime.end.p0(i64 1, ptr %15) #4
  call void @llvm.lifetime.end.p0(i64 8, ptr %14) #4
  call void @llvm.lifetime.end.p0(i64 8, ptr %13) #4
  call void @llvm.lifetime.end.p0(i64 4, ptr %12) #4
  call void @llvm.lifetime.end.p0(i64 4, ptr %11) #4
  call void @llvm.lifetime.end.p0(i64 4, ptr %10) #4
  %254 = load i32, ptr %5, align 4
  ret i32 %254
}