; Function Attrs: null_pointer_is_valid sspstrong uwtable
define internal i32 @dissect_mpls_echo(ptr noundef %0, ptr noundef %1, ptr noundef %2, ptr readnone captures(none) %3) #0 {
  %5 = tail call i32 @tvb_captured_length(ptr noundef %0)
  %6 = icmp ult i32 %5, 5
  br i1 %6, label %72, label %7

7:                                                ; preds = %4
  %8 = tail call zeroext i16 @tvb_get_ntohs(ptr noundef %0, i32 noundef 0)
  %.not = icmp eq i16 %8, 1
  br i1 %.not, label %9, label %72

9:                                                ; preds = %7
  %10 = getelementptr inbounds nuw i8, ptr %1, i64 8
  %11 = load ptr, ptr %10, align 8
  tail call void @col_set_str(ptr noundef %11, i32 noundef 35, ptr noundef nonnull @.str.622)
  %12 = load ptr, ptr %10, align 8
  tail call void @col_clear(ptr noundef %12, i32 noundef 25)
  %13 = tail call i32 @tvb_reported_length_remaining(ptr noundef %0, i32 noundef 0)
  %14 = tail call zeroext i8 @tvb_get_uint8(ptr noundef %0, i32 noundef 4)
  %15 = add i8 %14, -1
  %or.cond = icmp ult i8 %15, 2
  %or.cond121.v = select i1 %or.cond, i32 32, i32 16
  %or.cond121 = icmp slt i32 %13, %or.cond121.v
  br i1 %or.cond121, label %16, label %21

16:                                               ; preds = %9
  %17 = load ptr, ptr %10, align 8
  tail call void @col_set_str(ptr noundef %17, i32 noundef 25, ptr noundef nonnull @.str.623)
  %18 = load i32, ptr @proto_mpls_echo, align 4
  %19 = tail call ptr @proto_tree_add_item(ptr noundef %2, i32 noundef %18, ptr noundef %0, i32 noundef 0, i32 noundef -1, i32 noundef 0)
  %20 = tail call ptr (ptr, ptr, ptr, ptr, ...) @expert_add_info_format(ptr noundef %1, ptr noundef %19, ptr noundef nonnull @ei_mpls_echo_malformed, ptr noundef nonnull @.str.624, i32 noundef %13, i32 noundef %or.cond121.v)
  br label %72

21:                                               ; preds = %9
  %22 = zext i8 %14 to i32
  %23 = load ptr, ptr %10, align 8
  %24 = tail call ptr @val_to_str(i32 noundef %22, ptr noundef nonnull @mpls_echo_msgtype, ptr noundef nonnull @.str.625)
  tail call void @col_add_str(ptr noundef %23, i32 noundef 25, ptr noundef %24)
  %.not120 = icmp eq ptr %2, null
  br i1 %.not120, label %63, label %25

25:                                               ; preds = %21
  %26 = load i32, ptr @proto_mpls_echo, align 4
  %27 = tail call ptr @proto_tree_add_item(ptr noundef nonnull %2, i32 noundef %26, ptr noundef %0, i32 noundef 0, i32 noundef -1, i32 noundef 0)
  %28 = load i32, ptr @ett_mpls_echo, align 4
  %29 = tail call ptr @proto_item_add_subtree(ptr noundef %27, i32 noundef %28)
  %30 = load i32, ptr @hf_mpls_echo_version, align 4
  %31 = tail call ptr @proto_tree_add_item(ptr noundef %29, i32 noundef %30, ptr noundef %0, i32 noundef 0, i32 noundef 2, i32 noundef 0)
  br i1 %or.cond, label %32, label %43

32:                                               ; preds = %25
  %33 = load i32, ptr @hf_mpls_echo_gflags, align 4
  %34 = tail call ptr @proto_tree_add_item(ptr noundef %29, i32 noundef %33, ptr noundef %0, i32 noundef 2, i32 noundef 2, i32 noundef 0)
  %35 = load i32, ptr @ett_mpls_echo_gflags, align 4
  %36 = tail call ptr @proto_item_add_subtree(ptr noundef %34, i32 noundef %35)
  %37 = load i32, ptr @hf_mpls_echo_flag_sbz, align 4
  %38 = tail call ptr @proto_tree_add_item(ptr noundef %36, i32 noundef %37, ptr noundef %0, i32 noundef 2, i32 noundef 2, i32 noundef 0)
  %39 = load i32, ptr @hf_mpls_echo_flag_v, align 4
  %40 = tail call ptr @proto_tree_add_item(ptr noundef %36, i32 noundef %39, ptr noundef %0, i32 noundef 2, i32 noundef 2, i32 noundef 0)
  %41 = load i32, ptr @hf_mpls_echo_flag_t, align 4
  %42 = tail call ptr @proto_tree_add_item(ptr noundef %36, i32 noundef %41, ptr noundef %0, i32 noundef 2, i32 noundef 2, i32 noundef 0)
  br label %43

43:                                               ; preds = %25, %32
  %hf_mpls_echo_mbz.sink = phi ptr [ @hf_mpls_echo_flag_r, %32 ], [ @hf_mpls_echo_mbz, %25 ]
  %.sink = phi ptr [ %36, %32 ], [ %29, %25 ]
  %44 = load i32, ptr %hf_mpls_echo_mbz.sink, align 4
  %45 = tail call ptr @proto_tree_add_item(ptr noundef %.sink, i32 noundef %44, ptr noundef %0, i32 noundef 2, i32 noundef 2, i32 noundef 0)
  %46 = load i32, ptr @hf_mpls_echo_msgtype, align 4
  %47 = tail call ptr @proto_tree_add_item(ptr noundef %29, i32 noundef %46, ptr noundef %0, i32 noundef 4, i32 noundef 1, i32 noundef 0)
  %48 = load i32, ptr @hf_mpls_echo_replymode, align 4
  %49 = tail call ptr @proto_tree_add_item(ptr noundef %29, i32 noundef %48, ptr noundef %0, i32 noundef 5, i32 noundef 1, i32 noundef 0)
  %50 = load i32, ptr @hf_mpls_echo_returncode, align 4
  %51 = tail call ptr @proto_tree_add_item(ptr noundef %29, i32 noundef %50, ptr noundef %0, i32 noundef 6, i32 noundef 1, i32 noundef 0)
  %52 = load i32, ptr @hf_mpls_echo_returnsubcode, align 4
  %53 = tail call ptr @proto_tree_add_item(ptr noundef %29, i32 noundef %52, ptr noundef %0, i32 noundef 7, i32 noundef 1, i32 noundef 0)
  %54 = load i32, ptr @hf_mpls_echo_handle, align 4
  %55 = tail call ptr @proto_tree_add_item(ptr noundef %29, i32 noundef %54, ptr noundef %0, i32 noundef 8, i32 noundef 4, i32 noundef 0)
  %56 = load i32, ptr @hf_mpls_echo_sequence, align 4
  %57 = tail call ptr @proto_tree_add_item(ptr noundef %29, i32 noundef %56, ptr noundef %0, i32 noundef 12, i32 noundef 4, i32 noundef 0)
  br i1 %or.cond, label %58, label %63

58:                                               ; preds = %43
  %59 = load i32, ptr @hf_mpls_echo_ts_sent, align 4
  %60 = tail call ptr @proto_tree_add_item(ptr noundef %29, i32 noundef %59, ptr noundef %0, i32 noundef 16, i32 noundef 8, i32 noundef 2)
  %61 = load i32, ptr @hf_mpls_echo_ts_rec, align 4
  %62 = tail call ptr @proto_tree_add_item(ptr noundef %29, i32 noundef %61, ptr noundef %0, i32 noundef 24, i32 noundef 8, i32 noundef 2)
  br label %63

63:                                               ; preds = %58, %43, %21
  %.0115 = phi ptr [ %29, %58 ], [ %29, %43 ], [ null, %21 ]
  %64 = tail call i32 @tvb_reported_length_remaining(ptr noundef %0, i32 noundef %or.cond121.v)
  %65 = icmp sgt i32 %64, 0
  br i1 %65, label %.lr.ph.preheader, label %._crit_edge

.lr.ph.preheader:                                 ; preds = %63
  %.0116.v = select i1 %or.cond, i32 -32, i32 -16
  %.0116 = add nsw i32 %.0116.v, %13
  br label %.lr.ph

.lr.ph:                                           ; preds = %.lr.ph.preheader, %.lr.ph
  %.1123 = phi i32 [ %67, %.lr.ph ], [ %or.cond121.v, %.lr.ph.preheader ]
  %.1117122 = phi i32 [ %68, %.lr.ph ], [ %.0116, %.lr.ph.preheader ]
  %66 = tail call fastcc i32 @dissect_mpls_echo_tlv(ptr noundef %0, ptr noundef %1, i32 noundef %.1123, ptr noundef %.0115, i32 noundef %.1117122, i1 noundef zeroext false)
  %67 = add i32 %66, %.1123
  %68 = sub i32 %.1117122, %66
  %69 = tail call i32 @tvb_reported_length_remaining(ptr noundef %0, i32 noundef %67)
  %70 = icmp sgt i32 %69, 0
  br i1 %70, label %.lr.ph, label %._crit_edge, !llvm.loop !6

._crit_edge:                                      ; preds = %.lr.ph, %63
  %71 = tail call i32 @tvb_captured_length(ptr noundef %0)
  br label %72

72:                                               ; preds = %7, %4, %._crit_edge, %16
  %.0 = phi i32 [ 0, %16 ], [ %71, %._crit_edge ], [ 0, %4 ], [ 0, %7 ]
  ret i32 %.0
}